target datalayout = "e-m:e-p270:32:32-p271:32:32-p272:64:64-i64:64-i128:128-f80:128-n8:16:32:64-S128"
target triple = "x86_64-pc-linux-gnu"

%"class.Assimp::FBX::FBXExportProperty" = type { i8, %"class.std::vector" }
%"class.std::vector" = type { %"struct.std::_Vector_base" }
%"struct.std::_Vector_base" = type { %"struct.std::_Vector_base<unsigned char, std::allocator<unsigned char>>::_Vector_impl" }
%"struct.std::_Vector_base<unsigned char, std::allocator<unsigned char>>::_Vector_impl" = type { %"struct.std::_Vector_base<unsigned char, std::allocator<unsigned char>>::_Vector_impl_data" }
%"struct.std::_Vector_base<unsigned char, std::allocator<unsigned char>>::_Vector_impl_data" = type { ptr, ptr, ptr }

@.str = private unnamed_addr constant [43 x i8] c"Requested size on property of unknown type\00", align 1
@_ZTI17DeadlyExportError = linkonce_odr constant { ptr, ptr, ptr } { ptr getelementptr inbounds (ptr, ptr @_ZTVN10__cxxabiv120__si_class_type_infoE, i64 2), ptr @_ZTS17DeadlyExportError, ptr @_ZTI15DeadlyErrorBase }, comdat, align 8

; Function Attrs: mustprogress nounwind uwtable
define linkonce_odr noundef i64 @_ZNKSt6vectorIhSaIhEE4sizeEv(ptr noundef nonnull align 8 dereferenceable(24) %0) #2 comdat align 2 {
  %2 = alloca ptr, align 8
  store ptr %0, ptr %2, align 8
  %3 = load ptr, ptr %2, align 8
  %4 = getelementptr inbounds nuw %"struct.std::_Vector_base", ptr %3, i32 0, i32 0
  %5 = getelementptr inbounds nuw %"struct.std::_Vector_base<unsigned char, std::allocator<unsigned char>>::_Vector_impl_data", ptr %4, i32 0, i32 1
  %6 = load ptr, ptr %5, align 8
  %7 = getelementptr inbounds nuw %"struct.std::_Vector_base", ptr %3, i32 0, i32 0
  %8 = getelementptr inbounds nuw %"struct.std::_Vector_base<unsigned char, std::allocator<unsigned char>>::_Vector_impl_data", ptr %7, i32 0, i32 0
  %9 = load ptr, ptr %8, align 8
  %10 = ptrtoint ptr %6 to i64
  %11 = ptrtoint ptr %9 to i64
  %12 = sub i64 %10, %11
  ret i64 %12
}

; Function Attrs: mustprogress uwtable
define hidden noundef i64 @_ZN6Assimp3FBX17FBXExportProperty4sizeEv(ptr noundef nonnull align 8 dereferenceable(32) %0) #0 align 2 personality ptr @__gxx_personality_v0 {
  %2 = alloca i64, align 8
  %3 = alloca ptr, align 8
  %4 = alloca ptr, align 8
  %5 = alloca i32, align 4
  store ptr %0, ptr %3, align 8
  %6 = load ptr, ptr %3, align 8
  %7 = getelementptr inbounds nuw %"class.Assimp::FBX::FBXExportProperty", ptr %6, i32 0, i32 0
  %8 = load i8, ptr %7, align 8
  %9 = sext i8 %8 to i32
  switch i32 %9, label %22 [
    i32 67, label %10
    i32 89, label %10
    i32 73, label %10
    i32 70, label %10
    i32 68, label %10
    i32 76, label %10
    i32 83, label %14
    i32 82, label %14
    i32 105, label %18
    i32 100, label %18
  ]

10:                                               ; preds = %1, %1, %1, %1, %1, %1
  %11 = getelementptr inbounds nuw %"class.Assimp::FBX::FBXExportProperty", ptr %6, i32 0, i32 1
  %12 = call noundef i64 @_ZNKSt6vectorIhSaIhEE4sizeEv(ptr noundef nonnull align 8 dereferenceable(24) %11) #15
  %13 = add i64 %12, 1
  store i64 %13, ptr %2, align 8
  br label %29

14:                                               ; preds = %1, %1
  %15 = getelementptr inbounds nuw %"class.Assimp::FBX::FBXExportProperty", ptr %6, i32 0, i32 1
  %16 = call noundef i64 @_ZNKSt6vectorIhSaIhEE4sizeEv(ptr noundef nonnull align 8 dereferenceable(24) %15) #15
  %17 = add i64 %16, 5
  store i64 %17, ptr %2, align 8
  br label %29

18:                                               ; preds = %1, %1
  %19 = getelementptr inbounds nuw %"class.Assimp::FBX::FBXExportProperty", ptr %6, i32 0, i32 1
  %20 = call noundef i64 @_ZNKSt6vectorIhSaIhEE4sizeEv(ptr noundef nonnull align 8 dereferenceable(24) %19) #15
  %21 = add i64 %20, 13
  store i64 %21, ptr %2, align 8
  br label %29

22:                                               ; preds = %1
  %23 = call ptr @__cxa_allocate_exception(i64 16) #15
  invoke void @_ZN17DeadlyExportErrorC2IJRA43_KcEEEDpOT_(ptr noundef nonnull align 8 dereferenceable(16) %23, ptr noundef nonnull align 1 dereferenceable(43) @.str)
          to label %24 unwind label %25

24:                                               ; preds = %22
  call void @__cxa_throw(ptr %23, ptr @_ZTI17DeadlyExportError, ptr @_ZNSt13runtime_errorD2Ev) #16
  unreachable

25:                                               ; preds = %22
  %26 = landingpad { ptr, i32 }
          cleanup
  %27 = extractvalue { ptr, i32 } %26, 0
  store ptr %27, ptr %4, align 8
  %28 = extractvalue { ptr, i32 } %26, 1
  store i32 %28, ptr %5, align 4
  call void @__cxa_free_exception(ptr %23) #15
  br label %31

29:                                               ; preds = %18, %14, %10
  %30 = load i64, ptr %2, align 8
  ret i64 %30

31:                                               ; preds = %25
  %32 = load ptr, ptr %4, align 8
  %33 = load i32, ptr %5, align 4
  %34 = insertvalue { ptr, i32 } poison, ptr %32, 0
  %35 = insertvalue { ptr, i32 } %34, i32 %33, 1
  resume { ptr, i32 } %35
}