; Function Attrs: mustprogress uwtable
define hidden noundef i64 @_ZN6Assimp3FBX17FBXExportProperty4sizeEv(ptr noundef nonnull readonly align 8 captures(none) dereferenceable(32) %0) local_unnamed_addr #0 align 2 personality ptr @__gxx_personality_v0 {
  %2 = load i8, ptr %0, align 8
  switch i8 %2, label %5 [
    i8 67, label %10
    i8 89, label %10
    i8 73, label %10
    i8 70, label %10
    i8 68, label %10
    i8 76, label %10
    i8 83, label %3
    i8 82, label %3
    i8 105, label %4
    i8 100, label %4
  ]

3:                                                ; preds = %1, %1
  br label %10

4:                                                ; preds = %1, %1
  br label %10

5:                                                ; preds = %1
  %6 = tail call ptr @__cxa_allocate_exception(i64 16) #18
  invoke void @_ZN17DeadlyExportErrorC2IJRA43_KcEEEDpOT_(ptr noundef nonnull align 8 dereferenceable(16) %6, ptr noundef nonnull align 1 dereferenceable(43) @.str)
          to label %7 unwind label %8

7:                                                ; preds = %5
  tail call void @__cxa_throw(ptr nonnull %6, ptr nonnull @_ZTI17DeadlyExportError, ptr nonnull @_ZNSt13runtime_errorD2Ev) #19
  unreachable

8:                                                ; preds = %5
  %9 = landingpad { ptr, i32 }
          cleanup
  tail call void @__cxa_free_exception(ptr nonnull %6) #18
  resume { ptr, i32 } %9

10:                                               ; preds = %1, %1, %1, %1, %1, %1, %4, %3
  %.sink7 = phi i64 [ 13, %4 ], [ 5, %3 ], [ 1, %1 ], [ 1, %1 ], [ 1, %1 ], [ 1, %1 ], [ 1, %1 ], [ 1, %1 ]
  %11 = getelementptr inbounds nuw i8, ptr %0, i64 8
  %12 = getelementptr inbounds nuw i8, ptr %0, i64 16
  %13 = load ptr, ptr %12, align 8
  %14 = load ptr, ptr %11, align 8
  %15 = ptrtoint ptr %13 to i64
  %16 = ptrtoint ptr %14 to i64
  %17 = add i64 %.sink7, %15
  %18 = sub i64 %17, %16
  ret i64 %18
}